BL51 BANKED LINKER/LOCATER V6.22.2.0                                                    02/28/2021  13:54:42  PAGE 1


BL51 BANKED LINKER/LOCATER V6.22.2.0, INVOKED BY:
D:\MDK5ANZHUANGWENJIANJIA\C51\BIN\BL51.EXE .\Objects\STARTUP.obj, .\Objects\main.obj, .\Objects\lcd.obj, .\Objects\menu.
>> obj TO .\Objects\course_design PRINT (.\Listings\course_design.m51) RAMSIZE (256)


MEMORY MODEL: SMALL


INPUT MODULES INCLUDED:
  .\Objects\STARTUP.obj (?C_STARTUP)
  .\Objects\main.obj (MAIN)
  .\Objects\lcd.obj (LCD)
  .\Objects\menu.obj (MENU)
  D:\MDK5ANZHUANGWENJIANJIA\C51\LIB\C51S.LIB (?C_INIT)
  D:\MDK5ANZHUANGWENJIANJIA\C51\LIB\C51S.LIB (?C?COPY)
  D:\MDK5ANZHUANGWENJIANJIA\C51\LIB\C51S.LIB (?C?CLDPTR)
  D:\MDK5ANZHUANGWENJIANJIA\C51\LIB\C51S.LIB (?C?IMUL)
  D:\MDK5ANZHUANGWENJIANJIA\C51\LIB\C51S.LIB (?C?UIDIV)
  D:\MDK5ANZHUANGWENJIANJIA\C51\LIB\C51S.LIB (?C?SIDIV)
  D:\MDK5ANZHUANGWENJIANJIA\C51\LIB\C51S.LIB (PRINTF)
  D:\MDK5ANZHUANGWENJIANJIA\C51\LIB\C51S.LIB (?C?CLDOPTR)
  D:\MDK5ANZHUANGWENJIANJIA\C51\LIB\C51S.LIB (?C?CSTPTR)
  D:\MDK5ANZHUANGWENJIANJIA\C51\LIB\C51S.LIB (?C?PLDIIDATA)
  D:\MDK5ANZHUANGWENJIANJIA\C51\LIB\C51S.LIB (?C?CCASE)
  D:\MDK5ANZHUANGWENJIANJIA\C51\LIB\C51S.LIB (PUTCHAR)


LINK MAP OF MODULE:  .\Objects\course_design (?C_STARTUP)


            TYPE    BASE      LENGTH    RELOCATION   SEGMENT NAME
            -----------------------------------------------------

            * * * * * * *   D A T A   M E M O R Y   * * * * * * *
            REG     0000H     0008H     ABSOLUTE     "REG BANK 0"
            REG     0008H     0008H     ABSOLUTE     "REG BANK 1"
            DATA    0010H     0004H     UNIT         ?DT?MAIN
                    0014H     000CH                  *** GAP ***
            BIT     0020H.0   0001H.1   UNIT         _BIT_GROUP_
                    0021H.1   0000H.7                *** GAP ***
            DATA    0022H     0022H     UNIT         ?DT?MENU
            DATA    0044H     001EH     UNIT         _DATA_GROUP_
            IDATA   0062H     0001H     UNIT         ?STACK

            * * * * * * *   C O D E   M E M O R Y   * * * * * * *
            CODE    0000H     0003H     ABSOLUTE     
                    0003H     0008H                  *** GAP ***
            CODE    000BH     0003H     ABSOLUTE     
            CODE    000EH     03EBH     UNIT         ?PR?SET_DATE?MENU
            CODE    03F9H     035CH     UNIT         ?PR?PRINTF?PRINTF
            CODE    0755H     0221H     UNIT         ?C?LIB_CODE
            CODE    0976H     01C4H     UNIT         ?PR?BEEP_TIME?MENU
            CODE    0B3AH     017DH     UNIT         ?PR?DISPLAY_NOW_DATE?MAIN
            CODE    0CB7H     0151H     UNIT         ?PR?CHANGE_NOW_DATE_TIME?MAIN
            CODE    0E08H     0112H     UNIT         ?PR?UPDATE_TODAY?MENU
            CODE    0F1AH     00DEH     UNIT         ?PR?REFRESH_DISPLAY?MENU
            CODE    0FF8H     0097H     UNIT         ?PR?TM0_ISR?MAIN
            CODE    108FH     008CH     UNIT         ?C_C51STARTUP
BL51 BANKED LINKER/LOCATER V6.22.2.0                                                  02/28/2021  13:54:42  PAGE 2


            CODE    111BH     0088H     UNIT         ?PR?MAIN?MAIN
            CODE    11A3H     005DH     UNIT         ?PR?SET_MOUNTH_DAYS?MENU
            CODE    1200H     0045H     UNIT         ?CO?MAIN
            CODE    1245H     0034H     UNIT         ?PR?MENU_LIST?MENU
            CODE    1279H     0033H     UNIT         ?C_INITSEG
            CODE    12ACH     0032H     UNIT         ?CO?MENU
            CODE    12DEH     002CH     UNIT         ?PR?_LCD_POS?LCD
            CODE    130AH     0027H     UNIT         ?PR?PUTCHAR?PUTCHAR
            CODE    1331H     0026H     UNIT         ?PR?LCD_INIT?LCD
            CODE    1357H     0026H     UNIT         ?PR?_PRINTF_STR?LCD
            CODE    137DH     0025H     UNIT         ?PR?_DELAY?LCD
            CODE    13A2H     001CH     UNIT         ?PR?_LCD_WCMD?LCD
            CODE    13BEH     001AH     UNIT         ?PR?_LCD_WDAT?LCD
            CODE    13D8H     0017H     UNIT         ?PR?KEY_SCAN?MENU
            CODE    13EFH     0014H     UNIT         ?PR?LCD_BUSY?LCD
            CODE    1403H     0013H     UNIT         ?PR?UART0INIT?MAIN
            CODE    1416H     000EH     UNIT         ?PR?TIMER0INIT?MAIN
            CODE    1424H     0009H     UNIT         ?PR?KEY_INIT?MENU



OVERLAY MAP OF MODULE:   .\Objects\course_design (?C_STARTUP)


SEGMENT                                  BIT_GROUP          DATA_GROUP 
  +--> CALLED SEGMENT                 START    LENGTH     START    LENGTH
-------------------------------------------------------------------------
?C_C51STARTUP                         -----    -----      -----    -----
  +--> ?PR?MAIN?MAIN
  +--> ?C_INITSEG

?PR?MAIN?MAIN                         -----    -----      -----    -----
  +--> ?PR?KEY_INIT?MENU
  +--> ?PR?LCD_INIT?LCD
  +--> ?PR?TIMER0INIT?MAIN
  +--> ?CO?MAIN
  +--> ?PR?_PRINTF_STR?LCD
  +--> ?PR?_DELAY?LCD
  +--> ?PR?_LCD_WCMD?LCD
  +--> ?PR?MENU_LIST?MENU
  +--> ?PR?DISPLAY_NOW_DATE?MAIN

?PR?LCD_INIT?LCD                      -----    -----      -----    -----
  +--> ?PR?_LCD_WCMD?LCD
  +--> ?PR?_DELAY?LCD

?PR?_LCD_WCMD?LCD                     -----    -----      -----    -----
  +--> ?PR?LCD_BUSY?LCD

?PR?LCD_BUSY?LCD                      0020H.0  0000H.1    -----    -----

?PR?_DELAY?LCD                        -----    -----      0044H    0001H

?PR?_PRINTF_STR?LCD                   -----    -----      004EH    0003H
  +--> ?PR?_LCD_POS?LCD
  +--> ?PR?_LCD_WDAT?LCD

BL51 BANKED LINKER/LOCATER V6.22.2.0                                                  02/28/2021  13:54:42  PAGE 3


?PR?_LCD_POS?LCD                      -----    -----      -----    -----
  +--> ?PR?_LCD_WCMD?LCD

?PR?_LCD_WDAT?LCD                     -----    -----      -----    -----
  +--> ?PR?LCD_BUSY?LCD

?PR?MENU_LIST?MENU                    -----    -----      -----    -----
  +--> ?PR?KEY_SCAN?MENU
  +--> ?PR?_LCD_WCMD?LCD
  +--> ?PR?SET_DATE?MENU
  +--> ?PR?BEEP_TIME?MENU
  +--> ?PR?UPDATE_TODAY?MENU

?PR?KEY_SCAN?MENU                     0020H.0  0000H.1    -----    -----
  +--> ?PR?_DELAY?LCD

?PR?SET_DATE?MENU                     -----    -----      -----    -----
  +--> ?CO?MENU
  +--> ?PR?_PRINTF_STR?LCD
  +--> ?PR?PRINTF?PRINTF
  +--> ?PR?KEY_SCAN?MENU
  +--> ?PR?SET_MOUNTH_DAYS?MENU
  +--> ?PR?REFRESH_DISPLAY?MENU

?PR?PRINTF?PRINTF                     0020H.0  0001H.1    004EH    0014H
  +--> ?PR?PUTCHAR?PUTCHAR

?PR?REFRESH_DISPLAY?MENU              -----    -----      -----    -----
  +--> ?CO?MENU
  +--> ?PR?PRINTF?PRINTF
  +--> ?PR?_PRINTF_STR?LCD

?PR?BEEP_TIME?MENU                    -----    -----      -----    -----
  +--> ?CO?MENU
  +--> ?PR?_PRINTF_STR?LCD
  +--> ?PR?PRINTF?PRINTF
  +--> ?PR?KEY_SCAN?MENU

?PR?DISPLAY_NOW_DATE?MAIN             -----    -----      0044H    000AH
  +--> ?CO?MAIN
  +--> ?PR?_PRINTF_STR?LCD
  +--> ?PR?PRINTF?PRINTF

*** NEW ROOT ***************************************************

?PR?TM0_ISR?MAIN                      -----    -----      -----    -----
  +--> ?PR?CHANGE_NOW_DATE_TIME?MAIN



SYMBOL TABLE OF MODULE:  .\Objects\course_design (?C_STARTUP)

  VALUE           TYPE          NAME
  ----------------------------------

  -------         MODULE        ?C_STARTUP
  C:108FH         SEGMENT       ?C_C51STARTUP
BL51 BANKED LINKER/LOCATER V6.22.2.0                                                  02/28/2021  13:54:42  PAGE 4


  I:0062H         SEGMENT       ?STACK
  C:0000H         PUBLIC        ?C_STARTUP
  D:00E0H         SYMBOL        ACC
  D:00F0H         SYMBOL        B
  D:0083H         SYMBOL        DPH
  D:0082H         SYMBOL        DPL
  N:0000H         SYMBOL        IBPSTACK
  N:0100H         SYMBOL        IBPSTACKTOP
  N:0080H         SYMBOL        IDATALEN
  C:1092H         SYMBOL        IDATALOOP
  N:0000H         SYMBOL        PBPSTACK
  N:0100H         SYMBOL        PBPSTACKTOP
  N:0000H         SYMBOL        PDATALEN
  N:0000H         SYMBOL        PDATASTART
  N:0000H         SYMBOL        PPAGE
  N:0000H         SYMBOL        PPAGEENABLE
  D:00A0H         SYMBOL        PPAGE_SFR
  D:0081H         SYMBOL        SP
  C:108FH         SYMBOL        STARTUP1
  N:0000H         SYMBOL        XBPSTACK
  N:0000H         SYMBOL        XBPSTACKTOP
  N:0000H         SYMBOL        XDATALEN
  N:0000H         SYMBOL        XDATASTART
  C:0000H         LINE#         126
  C:108FH         LINE#         133
  C:1091H         LINE#         134
  C:1092H         LINE#         135
  C:1093H         LINE#         136
  C:1095H         LINE#         185
  C:1098H         LINE#         196
  -------         ENDMOD        ?C_STARTUP

  -------         MODULE        MAIN
  C:0000H         SYMBOL        _ICE_DUMMY_
  D:0090H         PUBLIC        P1
  D:00A0H         PUBLIC        P2
  D:00B0H         PUBLIC        P3
  B:00A8H.7       PUBLIC        EA
  D:00A8H         PUBLIC        IE
  B:00A8H.4       PUBLIC        ES
  D:00B8H         PUBLIC        IP
  B:0098H.1       PUBLIC        TI
  B:00A0H.5       PUBLIC        beep
  C:111BH         PUBLIC        main
  C:0B3AH         PUBLIC        display_now_date
  D:0010H         SYMBOL        count_times
  C:0CB7H         PUBLIC        change_now_date_time
  D:0098H         PUBLIC        SCON
  D:0089H         PUBLIC        TMOD
  D:0088H         PUBLIC        TCON
  C:0FF8H         PUBLIC        tm0_isr
  C:123BH         SYMBOL        _?ix1000
  D:0012H         SYMBOL        hour_beep_times
  B:00A8H.1       PUBLIC        ET0
  B:0088H.5       PUBLIC        TF0
  C:1416H         PUBLIC        Timer0Init
  D:008CH         PUBLIC        TH0
BL51 BANKED LINKER/LOCATER V6.22.2.0                                                  02/28/2021  13:54:42  PAGE 5


  D:008DH         PUBLIC        TH1
  D:008AH         PUBLIC        TL0
  D:008BH         PUBLIC        TL1
  B:0088H.4       PUBLIC        TR0
  B:0088H.6       PUBLIC        TR1
  C:1403H         PUBLIC        Uart0Init
  D:00C8H         PUBLIC        T2CON
  D:00D0H         PUBLIC        PSW
  -------         PROC          TM0_ISR
  C:0FF8H         LINE#         22
  C:1005H         LINE#         24
  C:1008H         LINE#         25
  C:100BH         LINE#         26
  C:1016H         LINE#         27
  C:101EH         LINE#         28
  C:102CH         LINE#         29
  C:1030H         LINE#         30
  C:1033H         LINE#         33
  C:103FH         LINE#         36
  C:1047H         LINE#         37
  C:104DH         LINE#         38
  C:1058H         LINE#         39
  C:1060H         LINE#         40
  C:1063H         LINE#         41
  C:1063H         LINE#         42
  C:1063H         LINE#         43
  C:1067H         LINE#         44
  C:1081H         LINE#         46
  C:1084H         LINE#         47
  C:1084H         LINE#         48
  C:1084H         LINE#         49
  -------         ENDPROC       TM0_ISR
  -------         PROC          MAIN
  C:111BH         LINE#         51
  C:111BH         LINE#         52
  C:111BH         LINE#         53
  C:111DH         LINE#         54
  C:1120H         LINE#         55
  C:1123H         LINE#         57
  C:1126H         LINE#         58
  C:1133H         LINE#         59
  C:113AH         LINE#         60
  C:113FH         LINE#         62
  C:1141H         LINE#         63
  C:1143H         LINE#         66
  C:1143H         LINE#         67
  C:1143H         LINE#         69
  C:1146H         LINE#         70
  C:114CH         LINE#         72
  C:114FH         LINE#         73
  C:1156H         LINE#         75
  C:1158H         LINE#         77
  C:1160H         LINE#         79
  C:1162H         LINE#         81
  C:1162H         LINE#         84
  C:1168H         LINE#         85
  C:1178H         LINE#         86
BL51 BANKED LINKER/LOCATER V6.22.2.0                                                  02/28/2021  13:54:42  PAGE 6


  C:117AH         LINE#         87
  C:1182H         LINE#         88
  C:118AH         LINE#         89
  C:118CH         LINE#         90
  C:1191H         LINE#         92
  C:1197H         LINE#         93
  C:1199H         LINE#         94
  C:11A1H         LINE#         95
  C:11A1H         LINE#         96
  C:11A1H         LINE#         97
  C:11A1H         LINE#         98
  -------         ENDPROC       MAIN
  -------         PROC          UART0INIT
  C:1403H         LINE#         100
  C:1403H         LINE#         101
  C:1403H         LINE#         102
  C:1406H         LINE#         103
  C:1409H         LINE#         104
  C:140CH         LINE#         105
  C:140FH         LINE#         106
  C:1411H         LINE#         107
  C:1413H         LINE#         108
  C:1415H         LINE#         109
  -------         ENDPROC       UART0INIT
  -------         PROC          TIMER0INIT
  C:1416H         LINE#         110
  C:1416H         LINE#         111
  C:1416H         LINE#         113
  C:1419H         LINE#         114
  C:141CH         LINE#         115
  C:141FH         LINE#         116
  C:1421H         LINE#         117
  C:1423H         LINE#         120
  -------         ENDPROC       TIMER0INIT
  -------         PROC          DISPLAY_NOW_DATE
  -------         DO            
  D:0044H         SYMBOL        str
  -------         ENDDO         
  C:0B3AH         LINE#         121
  C:0B3AH         LINE#         122
  C:0B4DH         LINE#         123
  C:0B59H         LINE#         125
  C:0B71H         LINE#         126
  C:0B7EH         LINE#         127
  C:0B8BH         LINE#         129
  C:0BA3H         LINE#         130
  C:0BB0H         LINE#         131
  C:0BBDH         LINE#         133
  C:0BD5H         LINE#         134
  C:0BE2H         LINE#         135
  C:0BEFH         LINE#         137
  C:0C07H         LINE#         138
  C:0C14H         LINE#         139
  C:0C21H         LINE#         142
  C:0C39H         LINE#         143
  C:0C46H         LINE#         144
  C:0C53H         LINE#         146
BL51 BANKED LINKER/LOCATER V6.22.2.0                                                  02/28/2021  13:54:42  PAGE 7


  C:0C6BH         LINE#         147
  C:0C78H         LINE#         148
  C:0C85H         LINE#         150
  C:0C9DH         LINE#         151
  C:0CAAH         LINE#         152
  -------         ENDPROC       DISPLAY_NOW_DATE
  -------         PROC          CHANGE_NOW_DATE_TIME
  C:0CB7H         LINE#         156
  C:0CB7H         LINE#         157
  C:0CC2H         LINE#         158
  C:0CCAH         LINE#         159
  C:0CD4H         LINE#         160
  C:0CD8H         LINE#         161
  C:0CD8H         LINE#         162
  C:0CE9H         LINE#         163
  C:0CF1H         LINE#         164
  C:0D01H         LINE#         165
  C:0D05H         LINE#         166
  C:0D05H         LINE#         167
  C:0D1CH         LINE#         168
  C:0D24H         LINE#         169
  C:0D3AH         LINE#         170
  C:0D3EH         LINE#         171
  C:0D3EH         LINE#         172
  C:0D5BH         LINE#         173
  C:0D63H         LINE#         174
  C:0D81H         LINE#         175
  C:0D87H         LINE#         176
  C:0D87H         LINE#         177
  C:0DACH         LINE#         178
  C:0DB4H         LINE#         179
  C:0DD8H         LINE#         180
  C:0DDDH         LINE#         181
  C:0DDDH         LINE#         182
  C:0DFFH         LINE#         183
  C:0E07H         LINE#         184
  C:0E07H         LINE#         186
  -------         ENDPROC       CHANGE_NOW_DATE_TIME
  -------         ENDMOD        MAIN

  -------         MODULE        LCD
  C:0000H         SYMBOL        _ICE_DUMMY_
  D:0080H         PUBLIC        P0
  D:0090H         PUBLIC        P1
  D:00A0H         PUBLIC        P2
  D:00B0H         PUBLIC        P3
  D:00A8H         PUBLIC        IE
  C:1381H         PUBLIC        _delay
  D:00B8H         PUBLIC        IP
  B:00A0H.3       PUBLIC        LCD_PSB
  D:0098H         PUBLIC        SCON
  D:0088H         PUBLIC        TCON
  C:13A2H         PUBLIC        _lcd_wcmd
  C:13BEH         PUBLIC        _lcd_wdat
  B:00A0H.2       PUBLIC        LCD_EN
  C:1331H         PUBLIC        lcd_init
  C:1357H         PUBLIC        _printf_str
BL51 BANKED LINKER/LOCATER V6.22.2.0                                                  02/28/2021  13:54:42  PAGE 8


  B:00A0H.0       PUBLIC        LCD_RS
  C:13EFH         PUBLIC        lcd_busy
  B:00A0H.1       PUBLIC        LCD_RW
  D:00C8H         PUBLIC        T2CON
  C:12DEH         PUBLIC        _lcd_pos
  D:00D0H         PUBLIC        PSW
  C:137DH         SYMBOL        L?0028
  -------         PROC          L?0027
  -------         ENDPROC       L?0027
  C:137DH         SYMBOL        L?0028
  -------         PROC          _DELAY
  D:0006H         SYMBOL        ms
  -------         DO            
  D:0044H         SYMBOL        i
  -------         ENDDO         
  C:1381H         LINE#         11
  C:1381H         LINE#         12
  C:1381H         LINE#         13
  C:138BH         LINE#         14
  C:138BH         LINE#         16
  C:1399H         LINE#         17
  C:1399H         LINE#         18
  C:139AH         LINE#         19
  C:139BH         LINE#         20
  C:139CH         LINE#         21
  C:139DH         LINE#         22
  C:13A1H         LINE#         23
  C:13A1H         LINE#         24
  -------         ENDPROC       _DELAY
  -------         PROC          LCD_BUSY
  -------         DO            
  B:0020H.0       SYMBOL        result
  -------         ENDDO         
  C:13EFH         LINE#         26
  C:13EFH         LINE#         27
  C:13EFH         LINE#         29
  C:13F1H         LINE#         30
  C:13F3H         LINE#         31
  C:13F5H         LINE#         32
  C:13F9H         LINE#         33
  C:13FEH         LINE#         34
  C:1400H         LINE#         35
  C:1402H         LINE#         36
  -------         ENDPROC       LCD_BUSY
  -------         PROC          _LCD_WCMD
  D:0007H         SYMBOL        cmd
  C:13A2H         LINE#         38
  C:13A2H         LINE#         39
  C:13A2H         LINE#         40
  C:13A7H         LINE#         41
  C:13A9H         LINE#         42
  C:13ABH         LINE#         43
  C:13ADH         LINE#         44
  C:13AEH         LINE#         45
  C:13AFH         LINE#         46
  C:13B1H         LINE#         47
  C:13B5H         LINE#         48
BL51 BANKED LINKER/LOCATER V6.22.2.0                                                  02/28/2021  13:54:42  PAGE 9


  C:13B7H         LINE#         49
  C:13BBH         LINE#         50
  C:13BDH         LINE#         51
  -------         ENDPROC       _LCD_WCMD
  -------         PROC          _LCD_WDAT
  D:0007H         SYMBOL        dat
  C:13BEH         LINE#         53
  C:13BEH         LINE#         54
  C:13BEH         LINE#         55
  C:13C3H         LINE#         56
  C:13C5H         LINE#         57
  C:13C7H         LINE#         58
  C:13C9H         LINE#         59
  C:13CBH         LINE#         60
  C:13CFH         LINE#         61
  C:13D1H         LINE#         62
  C:13D5H         LINE#         63
  C:13D7H         LINE#         64
  -------         ENDPROC       _LCD_WDAT
  -------         PROC          LCD_INIT
  C:1331H         LINE#         66
  C:1331H         LINE#         67
  C:1331H         LINE#         69
  C:1333H         LINE#         71
  C:1338H         LINE#         72
  C:133BH         LINE#         73
  C:1340H         LINE#         74
  C:1343H         LINE#         75
  C:1348H         LINE#         76
  C:134BH         LINE#         77
  C:1350H         LINE#         78
  -------         ENDPROC       LCD_INIT
  -------         PROC          _LCD_POS
  D:0007H         SYMBOL        X
  D:0005H         SYMBOL        Y
  -------         DO            
  D:0007H         SYMBOL        pos
  -------         ENDDO         
  C:12DEH         LINE#         81
  C:12DEH         LINE#         82
  C:12DEH         LINE#         84
  C:12E4H         LINE#         85
  C:12E8H         LINE#         86
  C:12EEH         LINE#         87
  C:12F2H         LINE#         88
  C:12F8H         LINE#         89
  C:12FCH         LINE#         90
  C:1302H         LINE#         91
  C:1304H         LINE#         92
  C:1307H         LINE#         93
  -------         ENDPROC       _LCD_POS
  -------         PROC          _PRINTF_STR
  D:0007H         SYMBOL        x
  D:0005H         SYMBOL        y
  D:004EH         SYMBOL        p
  C:1357H         LINE#         95
  C:135DH         LINE#         96
BL51 BANKED LINKER/LOCATER V6.22.2.0                                                  02/28/2021  13:54:42  PAGE 10


  C:1360H         LINE#         97
  C:136CH         LINE#         98
  C:136CH         LINE#         99
  C:136FH         LINE#         100
  C:137AH         LINE#         101
  C:137CH         LINE#         102
  -------         ENDPROC       _PRINTF_STR
  -------         ENDMOD        LCD

  -------         MODULE        MENU
  C:0000H         SYMBOL        _ICE_DUMMY_
  D:0090H         PUBLIC        P1
  D:00B0H         PUBLIC        P3
  B:00A8H.7       PUBLIC        EA
  C:0E08H         PUBLIC        update_today
  D:00A8H         PUBLIC        IE
  D:00B8H         PUBLIC        IP
  D:0022H         PUBLIC        star_postion
  C:0976H         PUBLIC        beep_time
  B:00B0H.5       PUBLIC        key_break
  D:0098H         PUBLIC        SCON
  D:0088H         PUBLIC        TCON
  B:00B0H.3       PUBLIC        value_down
  B:00A8H.1       PUBLIC        ET0
  C:000EH         PUBLIC        set_date
  C:0F1AH         PUBLIC        refresh_display
  C:13DCH         PUBLIC        key_scan
  C:1245H         PUBLIC        menu_list
  D:0023H         PUBLIC        str
  C:11A3H         PUBLIC        set_mounth_days
  C:1424H         PUBLIC        key_init
  B:00B0H.4       PUBLIC        value_up
  B:00B0H.2       PUBLIC        key_star
  D:002DH         PUBLIC        my_date
  D:00C8H         PUBLIC        T2CON
  D:003EH         PUBLIC        my_beep_time
  D:00D0H         PUBLIC        PSW
  -------         PROC          KEY_INIT
  C:1424H         LINE#         44
  C:1424H         LINE#         45
  C:1426H         LINE#         46
  C:1428H         LINE#         47
  C:142AH         LINE#         48
  C:142CH         LINE#         49
  -------         ENDPROC       KEY_INIT
  C:13D8H         SYMBOL        L?0160
  -------         PROC          L?0159
  -------         ENDPROC       L?0159
  C:13D8H         SYMBOL        L?0160
  -------         PROC          KEY_SCAN
  B:0020H.0       SYMBOL        key
  C:13DCH         LINE#         50
  C:13DCH         LINE#         51
  C:13DFH         LINE#         52
  C:13DFH         LINE#         54
  C:13E6H         LINE#         55
  C:13E9H         LINE#         56
BL51 BANKED LINKER/LOCATER V6.22.2.0                                                  02/28/2021  13:54:42  PAGE 11


  C:13ECH         LINE#         57
  C:13ECH         LINE#         58
  C:13EEH         LINE#         59
  -------         ENDPROC       KEY_SCAN
  -------         PROC          REFRESH_DISPLAY
  C:0F1AH         LINE#         60
  C:0F1AH         LINE#         61
  C:0F32H         LINE#         62
  C:0F3FH         LINE#         63
  C:0F57H         LINE#         64
  C:0F64H         LINE#         65
  C:0F7CH         LINE#         66
  C:0F89H         LINE#         68
  C:0FA1H         LINE#         69
  C:0FAEH         LINE#         70
  C:0FC6H         LINE#         71
  C:0FD3H         LINE#         72
  C:0FEBH         LINE#         73
  -------         ENDPROC       REFRESH_DISPLAY
  -------         PROC          SET_MOUNTH_DAYS
  -------         DO            
  D:0007H         SYMBOL        mounth_flag
  -------         ENDDO         
  C:11A3H         LINE#         76
  C:11A3H         LINE#         82
  C:11A5H         LINE#         83
  C:11B0H         LINE#         84
  C:11B5H         LINE#         86
  C:11B6H         LINE#         87
  C:11C0H         LINE#         89
  C:11C2H         LINE#         90
  C:11C4H         LINE#         92
  C:11C6H         LINE#         93
  C:11C6H         LINE#         94
  C:11C8H         LINE#         95
  C:11CDH         LINE#         97
  C:11CFH         LINE#         98
  C:11D1H         LINE#         100
  C:11D3H         LINE#         101
  C:11D3H         LINE#         102
  C:11D3H         LINE#         103
  C:11DFH         LINE#         104
  C:11DFH         LINE#         105
  C:11DFH         LINE#         107
  C:11E5H         LINE#         108
  C:11E6H         LINE#         109
  C:11E6H         LINE#         111
  C:11ECH         LINE#         113
  C:11F1H         LINE#         114
  C:11F2H         LINE#         116
  C:11F8H         LINE#         117
  C:11F8H         LINE#         118
  C:11F9H         LINE#         119
  C:11F9H         LINE#         121
  C:11FFH         LINE#         122
  C:11FFH         LINE#         123
  C:11FFH         LINE#         124
BL51 BANKED LINKER/LOCATER V6.22.2.0                                                  02/28/2021  13:54:42  PAGE 12


  C:11FFH         LINE#         125
  C:11FFH         LINE#         126
  -------         ENDPROC       SET_MOUNTH_DAYS
  -------         PROC          SET_DATE
  C:000EH         LINE#         127
  C:000EH         LINE#         128
  C:001AH         LINE#         129
  C:0027H         LINE#         130
  C:003FH         LINE#         131
  C:004CH         LINE#         132
  C:0059H         LINE#         133
  C:0071H         LINE#         134
  C:007EH         LINE#         135
  C:008BH         LINE#         136
  C:00A3H         LINE#         137
  C:00B0H         LINE#         139
  C:00BDH         LINE#         140
  C:00D5H         LINE#         141
  C:00E2H         LINE#         142
  C:00EFH         LINE#         143
  C:0107H         LINE#         144
  C:0114H         LINE#         145
  C:0121H         LINE#         146
  C:0139H         LINE#         147
  C:0146H         LINE#         149
  C:0153H         LINE#         151
  C:0156H         LINE#         152
  C:0156H         LINE#         153
  C:0156H         LINE#         156
  C:0163H         LINE#         157
  C:016EH         LINE#         158
  C:0178H         LINE#         159
  C:0185H         LINE#         160
  C:0195H         LINE#         161
  C:0195H         LINE#         162
  C:01A3H         LINE#         163
  C:01A7H         LINE#         164
  C:01ADH         LINE#         165
  C:01B0H         LINE#         167
  C:01BBH         LINE#         168
  C:01C5H         LINE#         169
  C:01D2H         LINE#         170
  C:01E2H         LINE#         171
  C:01E2H         LINE#         172
  C:01E2H         LINE#         177
  C:0205H         LINE#         178
  C:0208H         LINE#         179
  C:020AH         LINE#         180
  C:020DH         LINE#         181
  C:020DH         LINE#         183
  C:0210H         LINE#         186
  C:0219H         LINE#         187
  C:0238H         LINE#         188
  C:0238H         LINE#         190
  C:0238H         LINE#         192
  C:0240H         LINE#         193
  C:0243H         LINE#         194
BL51 BANKED LINKER/LOCATER V6.22.2.0                                                  02/28/2021  13:54:42  PAGE 13


  C:0243H         LINE#         196
  C:024BH         LINE#         197
  C:0250H         LINE#         198
  C:0261H         LINE#         199
  C:0269H         LINE#         200
  C:0269H         LINE#         201
  C:026CH         LINE#         202
  C:026CH         LINE#         205
  C:0276H         LINE#         206
  C:027CH         LINE#         207
  C:028DH         LINE#         208
  C:0295H         LINE#         209
  C:0295H         LINE#         210
  C:0298H         LINE#         212
  C:0298H         LINE#         214
  C:02A0H         LINE#         215
  C:02A4H         LINE#         216
  C:02B5H         LINE#         217
  C:02BDH         LINE#         218
  C:02BDH         LINE#         219
  C:02C0H         LINE#         220
  C:02C0H         LINE#         222
  C:02C8H         LINE#         223
  C:02CCH         LINE#         224
  C:02DAH         LINE#         225
  C:02E2H         LINE#         226
  C:02E2H         LINE#         227
  C:02E5H         LINE#         228
  C:02E5H         LINE#         230
  C:02EDH         LINE#         231
  C:02F1H         LINE#         232
  C:02FFH         LINE#         233
  C:0307H         LINE#         234
  C:0307H         LINE#         235
  C:0307H         LINE#         236
  C:0307H         LINE#         237
  C:0307H         LINE#         238
  C:0307H         LINE#         239
  C:0307H         LINE#         240
  C:0317H         LINE#         241
  C:0336H         LINE#         242
  C:0336H         LINE#         243
  C:0336H         LINE#         245
  C:033CH         LINE#         246
  C:0342H         LINE#         247
  C:0345H         LINE#         248
  C:0345H         LINE#         249
  C:034DH         LINE#         250
  C:034DH         LINE#         251
  C:0350H         LINE#         252
  C:0350H         LINE#         253
  C:0358H         LINE#         254
  C:035DH         LINE#         255
  C:0360H         LINE#         256
  C:0360H         LINE#         257
  C:0368H         LINE#         258
  C:0368H         LINE#         259
BL51 BANKED LINKER/LOCATER V6.22.2.0                                                  02/28/2021  13:54:42  PAGE 14


  C:036AH         LINE#         260
  C:036AH         LINE#         261
  C:0372H         LINE#         262
  C:0378H         LINE#         263
  C:037AH         LINE#         264
  C:037AH         LINE#         265
  C:0382H         LINE#         266
  C:0382H         LINE#         267
  C:0384H         LINE#         269
  C:0384H         LINE#         271
  C:038FH         LINE#         272
  C:0397H         LINE#         273
  C:039FH         LINE#         274
  C:03A4H         LINE#         275
  C:03A4H         LINE#         276
  C:03A6H         LINE#         277
  C:03A6H         LINE#         279
  C:03B1H         LINE#         280
  C:03B9H         LINE#         281
  C:03BBH         LINE#         282
  C:03C1H         LINE#         283
  C:03C6H         LINE#         284
  C:03C6H         LINE#         285
  C:03C8H         LINE#         286
  C:03C8H         LINE#         288
  C:03D3H         LINE#         289
  C:03DBH         LINE#         290
  C:03E3H         LINE#         291
  C:03E8H         LINE#         292
  C:03E8H         LINE#         293
  C:03E8H         LINE#         294
  C:03E8H         LINE#         295
  C:03E8H         LINE#         296
  C:03E8H         LINE#         297
  C:03EBH         LINE#         298
  C:03EBH         LINE#         299
  C:03F8H         LINE#         300
  C:03F8H         LINE#         301
  C:03F8H         LINE#         302
  C:03F8H         LINE#         305
  -------         ENDPROC       SET_DATE
  -------         PROC          BEEP_TIME
  C:0976H         LINE#         306
  C:0976H         LINE#         307
  C:0982H         LINE#         309
  C:098FH         LINE#         310
  C:09A7H         LINE#         311
  C:09B4H         LINE#         312
  C:09C1H         LINE#         313
  C:09D9H         LINE#         314
  C:09E6H         LINE#         316
  C:09E9H         LINE#         317
  C:09F6H         LINE#         318
  C:09F6H         LINE#         319
  C:09F6H         LINE#         322
  C:0A00H         LINE#         323
  C:0A0DH         LINE#         324
BL51 BANKED LINKER/LOCATER V6.22.2.0                                                  02/28/2021  13:54:42  PAGE 15


  C:0A16H         LINE#         325
  C:0A1AH         LINE#         326
  C:0A20H         LINE#         327
  C:0A23H         LINE#         328
  C:0A30H         LINE#         329
  C:0A30H         LINE#         331
  C:0A36H         LINE#         332
  C:0A3FH         LINE#         333
  C:0A3FH         LINE#         334
  C:0A3FH         LINE#         336
  C:0A47H         LINE#         337
  C:0A4BH         LINE#         338
  C:0A59H         LINE#         339
  C:0A61H         LINE#         340
  C:0A61H         LINE#         341
  C:0A63H         LINE#         342
  C:0A63H         LINE#         344
  C:0A6BH         LINE#         345
  C:0A6FH         LINE#         346
  C:0A7CH         LINE#         347
  C:0A84H         LINE#         348
  C:0A84H         LINE#         349
  C:0A84H         LINE#         350
  C:0A84H         LINE#         351
  C:0A84H         LINE#         352
  C:0A84H         LINE#         354
  C:0A84H         LINE#         355
  C:0A84H         LINE#         356
  C:0A84H         LINE#         357
  C:0A84H         LINE#         358
  C:0A93H         LINE#         359
  C:0A9CH         LINE#         360
  C:0A9CH         LINE#         361
  C:0A9CH         LINE#         362
  C:0AA7H         LINE#         363
  C:0AAFH         LINE#         364
  C:0AB7H         LINE#         365
  C:0ABCH         LINE#         366
  C:0ABCH         LINE#         367
  C:0ABEH         LINE#         368
  C:0ABEH         LINE#         370
  C:0AC9H         LINE#         371
  C:0AD1H         LINE#         372
  C:0AD3H         LINE#         373
  C:0AD9H         LINE#         374
  C:0ADEH         LINE#         375
  C:0ADEH         LINE#         376
  C:0ADEH         LINE#         377
  C:0ADEH         LINE#         378
  C:0ADEH         LINE#         379
  C:0ADEH         LINE#         381
  C:0AF6H         LINE#         382
  C:0B03H         LINE#         383
  C:0B1BH         LINE#         384
  C:0B28H         LINE#         385
  C:0B28H         LINE#         386
  C:0B35H         LINE#         387
BL51 BANKED LINKER/LOCATER V6.22.2.0                                                  02/28/2021  13:54:42  PAGE 16


  C:0B35H         LINE#         388
  C:0B35H         LINE#         389
  C:0B35H         LINE#         390
  C:0B37H         LINE#         391
  C:0B39H         LINE#         392
  -------         ENDPROC       BEEP_TIME
  -------         PROC          MENU_LIST
  C:1245H         LINE#         393
  C:1245H         LINE#         394
  C:124FH         LINE#         395
  C:1251H         LINE#         396
  C:1253H         LINE#         397
  C:1258H         LINE#         398
  C:125BH         LINE#         399
  C:1260H         LINE#         402
  C:1265H         LINE#         403
  C:1268H         LINE#         404
  C:126DH         LINE#         406
  C:1270H         LINE#         407
  C:1276H         LINE#         409
  C:1278H         LINE#         410
  C:1278H         LINE#         412
  -------         ENDPROC       MENU_LIST
  -------         PROC          UPDATE_TODAY
  C:0E08H         LINE#         415
  C:0E08H         LINE#         418
  C:0E1BH         LINE#         419
  C:0E9BH         LINE#         420
  C:0E9DH         LINE#         421
  C:0F19H         LINE#         422
  C:0F19H         LINE#         424
  -------         ENDPROC       UPDATE_TODAY
  -------         ENDMOD        MENU

  -------         MODULE        ?C?COPY
  C:0825H         PUBLIC        ?C?COPY
  -------         ENDMOD        ?C?COPY

  -------         MODULE        ?C?CLDPTR
  C:084BH         PUBLIC        ?C?CLDPTR
  -------         ENDMOD        ?C?CLDPTR

  -------         MODULE        ?C?IMUL
  C:0864H         PUBLIC        ?C?IMUL
  -------         ENDMOD        ?C?IMUL

  -------         MODULE        ?C?UIDIV
  C:0876H         PUBLIC        ?C?UIDIV
  -------         ENDMOD        ?C?UIDIV

  -------         MODULE        ?C?SIDIV
  C:08CBH         PUBLIC        ?C?SIDIV
  -------         ENDMOD        ?C?SIDIV

  -------         MODULE        PRINTF
  D:004EH         PUBLIC        ?_PRINTF517?BYTE
  D:004EH         PUBLIC        ?_PRINTF?BYTE
BL51 BANKED LINKER/LOCATER V6.22.2.0                                                  02/28/2021  13:54:42  PAGE 17


  D:004EH         PUBLIC        ?_SPRINTF517?BYTE
  D:004EH         PUBLIC        ?_SPRINTF?BYTE
  C:045BH         PUBLIC        _PRINTF
  C:045BH         PUBLIC        _PRINTF517
  C:0455H         PUBLIC        _SPRINTF
  C:0455H         PUBLIC        _SPRINTF517
  -------         ENDMOD        PRINTF

  -------         MODULE        ?C?CLDOPTR
  C:0901H         PUBLIC        ?C?CLDOPTR
  -------         ENDMOD        ?C?CLDOPTR

  -------         MODULE        ?C?CSTPTR
  C:092EH         PUBLIC        ?C?CSTPTR
  -------         ENDMOD        ?C?CSTPTR

  -------         MODULE        ?C?PLDIIDATA
  C:0940H         PUBLIC        ?C?PLDIIDATA
  -------         ENDMOD        ?C?PLDIIDATA

  -------         MODULE        ?C?CCASE
  C:0950H         PUBLIC        ?C?CCASE
  -------         ENDMOD        ?C?CCASE

  -------         MODULE        PUTCHAR
  C:130AH         PUBLIC        _PUTCHAR
  -------         ENDMOD        PUTCHAR

*** WARNING L16: UNCALLED SEGMENT, IGNORED FOR OVERLAY PROCESS
    SEGMENT: ?PR?UART0INIT?MAIN

Program Size: data=86.1 xdata=0 code=5157
LINK/LOCATE RUN COMPLETE.  1 WARNING(S),  0 ERROR(S)
